; Function Attrs: mustprogress uwtable
define internal void @_ZL18helmert_forward_4dR8PJ_COORDP8PJconsts(ptr noundef nonnull align 8 captures(none) dereferenceable(32) %0, ptr noundef %1) #0 {
  %3 = alloca %struct.PJ_XYZ, align 8
  %4 = getelementptr inbounds nuw i8, ptr %1, i64 88
  %5 = load ptr, ptr %4, align 8, !tbaa !47
  %6 = getelementptr inbounds nuw i8, ptr %0, i64 24
  %7 = load double, ptr %6, align 8, !tbaa !84
  %8 = fcmp oeq double %7, 0x7FF0000000000000
  br i1 %8, label %9, label %12

9:                                                ; preds = %2
  %10 = getelementptr inbounds nuw i8, ptr %5, i64 288
  %11 = load double, ptr %10, align 8, !tbaa !70
  br label %12

12:                                               ; preds = %2, %9
  %13 = phi double [ %11, %9 ], [ %7, %2 ]
  %14 = getelementptr inbounds nuw i8, ptr %5, i64 296
  %15 = load double, ptr %14, align 8, !tbaa !85
  %16 = fcmp une double %13, %15
  br i1 %16, label %17, label %18

17:                                               ; preds = %12
  store double %13, ptr %14, align 8, !tbaa !85
  tail call fastcc void @_ZL17update_parametersP8PJconsts(ptr noundef nonnull %1)
  tail call fastcc void @_ZL16build_rot_matrixP8PJconsts(ptr noundef nonnull %1)
  br label %18

18:                                               ; preds = %17, %12
  call void @llvm.lifetime.start.p0(i64 24, ptr nonnull %3) #10
  call void @_ZL18helmert_forward_3d6PJ_LPZP8PJconsts(ptr dead_on_unwind nonnull writable sret(%struct.PJ_XYZ) align 8 %3, ptr noundef nonnull byval(%struct.PJ_LPZ) align 8 %0, ptr noundef nonnull %1)
  call void @llvm.memcpy.p0.p0.i64(ptr noundef nonnull align 8 dereferenceable(24) %0, ptr noundef nonnull align 8 dereferenceable(24) %3, i64 24, i1 false), !tbaa.struct !71
  call void @llvm.lifetime.end.p0(i64 24, ptr nonnull %3) #10
  ret void
}